; Function Attrs: mustprogress uwtable
define void @_ZN7rocksdb21WriteQueryTraceRecordC2EONS_13PinnableSliceEm(ptr noundef nonnull align 8 dereferenceable(112) %this, ptr noundef nonnull align 8 dereferenceable(89) %write_batch_rep, i64 noundef %timestamp) unnamed_addr #2 align 2 personality ptr @__gxx_personality_v0 {
entry:
  %timestamp_.i.i = getelementptr inbounds i8, ptr %this, i64 8
  store i64 %timestamp, ptr %timestamp_.i.i, align 8
  store ptr getelementptr inbounds ({ [8 x ptr] }, ptr @_ZTVN7rocksdb21WriteQueryTraceRecordE, i64 0, i32 0, i64 2), ptr %this, align 8
  %rep_ = getelementptr inbounds i8, ptr %this, i64 16
  tail call void @_ZN7rocksdb13PinnableSliceC1EOS0_(ptr noundef nonnull align 8 dereferenceable(89) %rep_, ptr noundef nonnull align 8 dereferenceable(89) %write_batch_rep)
  ret void
}